; Function Attrs: mustprogress uwtable
define internal fastcc void @_ZN4leanL9mark_usedEjPKNS_4exprERS1_Pb(i32 noundef %0, ptr noundef %1, ptr noundef nonnull align 8 dereferenceable(8) %2, ptr noundef %3) unnamed_addr #0 personality ptr @__gxx_personality_v0 {
  %5 = alloca i32, align 4
  %6 = alloca ptr, align 8
  %7 = alloca ptr, align 8
  %8 = alloca %"class.std::function", align 8
  store i32 %0, ptr %5, align 4, !tbaa !138
  store ptr %1, ptr %6, align 8, !tbaa !139
  store ptr %3, ptr %7, align 8, !tbaa !140
  %9 = load ptr, ptr %2, align 8, !tbaa !3
  %10 = getelementptr i8, ptr %9, i64 4
  %.val.i.i = load i32, ptr %10, align 4
  %11 = lshr i32 %.val.i.i, 13
  %12 = and i32 %11, 2040
  %13 = getelementptr inbounds nuw i8, ptr %9, i64 8
  %14 = zext nneg i32 %12 to i64
  %15 = getelementptr inbounds nuw i8, ptr %13, i64 %14
  %16 = load i64, ptr %15, align 8, !tbaa !43
  %17 = and i64 %16, 1099511627776
  %.not = icmp eq i64 %17, 0
  br i1 %.not, label %30, label %18

18:                                               ; preds = %4
  call void @llvm.lifetime.start.p0(i64 32, ptr nonnull %8) #19
  %19 = getelementptr inbounds nuw i8, ptr %8, i64 16
  %20 = getelementptr inbounds nuw i8, ptr %8, i64 24
  %21 = getelementptr inbounds nuw i8, ptr %8, i64 8
  store i64 0, ptr %21, align 8
  %22 = tail call noalias noundef nonnull dereferenceable(24) ptr @_Znwm(i64 noundef 24) #23
  store ptr %5, ptr %22, align 16, !tbaa !141
  %.sroa.5.0..sroa_idx = getelementptr inbounds nuw i8, ptr %22, i64 8
  store ptr %6, ptr %.sroa.5.0..sroa_idx, align 8, !tbaa !143
  %.sroa.6.0..sroa_idx = getelementptr inbounds nuw i8, ptr %22, i64 16
  store ptr %7, ptr %.sroa.6.0..sroa_idx, align 16, !tbaa !145
  store ptr %22, ptr %8, align 8, !tbaa !91
  store ptr @"_ZNSt17_Function_handlerIFbRKN4lean4exprEEZNS0_L9mark_usedEjPS2_S3_PbE3$_0E9_M_invokeERKSt9_Any_dataS3_", ptr %20, align 8, !tbaa !147
  store ptr @"_ZNSt17_Function_handlerIFbRKN4lean4exprEEZNS0_L9mark_usedEjPS2_S3_PbE3$_0E10_M_managerERSt9_Any_dataRKS9_St18_Manager_operation", ptr %19, align 8, !tbaa !150
  invoke void @_ZN4lean8for_eachERKNS_4exprEOSt8functionIFbS2_EE(ptr noundef nonnull align 8 dereferenceable(8) %2, ptr noundef nonnull align 8 dereferenceable(32) %8)
          to label %23 unwind label %31

23:                                               ; preds = %18
  %24 = load ptr, ptr %19, align 8, !tbaa !150
  %.not.i = icmp eq ptr %24, null
  br i1 %.not.i, label %_ZNSt14_Function_baseD2Ev.exit, label %25

25:                                               ; preds = %23
  %26 = invoke noundef zeroext i1 %24(ptr noundef nonnull align 8 dereferenceable(32) %8, ptr noundef nonnull align 8 dereferenceable(32) %8, i32 noundef 3)
          to label %_ZNSt14_Function_baseD2Ev.exit unwind label %27

27:                                               ; preds = %25
  %28 = landingpad { ptr, i32 }
          catch ptr null
  %29 = extractvalue { ptr, i32 } %28, 0
  call void @__clang_call_terminate(ptr %29) #21
  unreachable

_ZNSt14_Function_baseD2Ev.exit:                   ; preds = %23, %25
  call void @llvm.lifetime.end.p0(i64 32, ptr nonnull %8) #19
  br label %30

30:                                               ; preds = %4, %_ZNSt14_Function_baseD2Ev.exit
  ret void

31:                                               ; preds = %18
  %32 = landingpad { ptr, i32 }
          cleanup
  %33 = load ptr, ptr %19, align 8, !tbaa !150
  %.not.i3 = icmp eq ptr %33, null
  br i1 %.not.i3, label %_ZNSt14_Function_baseD2Ev.exit4, label %34

34:                                               ; preds = %31
  %35 = invoke noundef zeroext i1 %33(ptr noundef nonnull align 8 dereferenceable(32) %8, ptr noundef nonnull align 8 dereferenceable(32) %8, i32 noundef 3)
          to label %_ZNSt14_Function_baseD2Ev.exit4 unwind label %36

36:                                               ; preds = %34
  %37 = landingpad { ptr, i32 }
          catch ptr null
  %38 = extractvalue { ptr, i32 } %37, 0
  call void @__clang_call_terminate(ptr %38) #21
  unreachable

_ZNSt14_Function_baseD2Ev.exit4:                  ; preds = %31, %34
  call void @llvm.lifetime.end.p0(i64 32, ptr nonnull %8) #19
  resume { ptr, i32 } %32
}